target datalayout = "e-m:e-p270:32:32-p271:32:32-p272:64:64-i64:64-i128:128-f80:128-n8:16:32:64-S128"
target triple = "x86_64-pc-linux-gnu"

; Function Attrs: alwaysinline nounwind uwtable
define internal void @interleave_10bit(ptr noundef %0, ptr noundef %1, ptr noundef %2, i32 noundef %3, i32 noundef %4, i32 noundef %5) #4 {
  %7 = alloca ptr, align 8
  %8 = alloca ptr, align 8
  %9 = alloca ptr, align 8
  %10 = alloca i32, align 4
  %11 = alloca i32, align 4
  %12 = alloca i32, align 4
  %13 = alloca i32, align 4
  store ptr %0, ptr %7, align 8, !tbaa !91
  store ptr %1, ptr %8, align 8, !tbaa !91
  store ptr %2, ptr %9, align 8, !tbaa !91
  store i32 %3, ptr %10, align 4, !tbaa !11
  store i32 %4, ptr %11, align 4, !tbaa !11
  store i32 %5, ptr %12, align 4, !tbaa !11
  call void @llvm.lifetime.start.p0(i64 4, ptr %13) #5
  store i32 0, ptr %13, align 4, !tbaa !11
  br label %14

14:                                               ; preds = %48, %6
  %15 = load i32, ptr %13, align 4, !tbaa !11
  %16 = load i32, ptr %10, align 4, !tbaa !11
  %17 = icmp slt i32 %15, %16
  br i1 %17, label %18, label %51

18:                                               ; preds = %14
  %19 = load ptr, ptr %8, align 8, !tbaa !91
  %20 = load i32, ptr %13, align 4, !tbaa !11
  %21 = sext i32 %20 to i64
  %22 = getelementptr inbounds i32, ptr %19, i64 %21
  %23 = load i32, ptr %22, align 4, !tbaa !11
  %24 = load i32, ptr %11, align 4, !tbaa !11
  %25 = add i32 %23, %24
  %26 = load i32, ptr %12, align 4, !tbaa !11
  %27 = ashr i32 %25, %26
  %28 = load ptr, ptr %7, align 8, !tbaa !91
  %29 = load i32, ptr %13, align 4, !tbaa !11
  %30 = mul nsw i32 2, %29
  %31 = sext i32 %30 to i64
  %32 = getelementptr inbounds i32, ptr %28, i64 %31
  store i32 %27, ptr %32, align 4, !tbaa !11
  %33 = load ptr, ptr %9, align 8, !tbaa !91
  %34 = load i32, ptr %13, align 4, !tbaa !11
  %35 = sext i32 %34 to i64
  %36 = getelementptr inbounds i32, ptr %33, i64 %35
  %37 = load i32, ptr %36, align 4, !tbaa !11
  %38 = load i32, ptr %11, align 4, !tbaa !11
  %39 = add i32 %37, %38
  %40 = load i32, ptr %12, align 4, !tbaa !11
  %41 = ashr i32 %39, %40
  %42 = load ptr, ptr %7, align 8, !tbaa !91
  %43 = load i32, ptr %13, align 4, !tbaa !11
  %44 = mul nsw i32 2, %43
  %45 = add nsw i32 %44, 1
  %46 = sext i32 %45 to i64
  %47 = getelementptr inbounds i32, ptr %42, i64 %46
  store i32 %41, ptr %47, align 4, !tbaa !11
  br label %48

48:                                               ; preds = %18
  %49 = load i32, ptr %13, align 4, !tbaa !11
  %50 = add nsw i32 %49, 1
  store i32 %50, ptr %13, align 4, !tbaa !11
  br label %14, !llvm.loop !124

51:                                               ; preds = %14
  call void @llvm.lifetime.end.p0(i64 4, ptr %13) #5
  ret void
}

; Function Attrs: nounwind uwtable
define internal void @horizontal_compose_dirac53i_10bit(ptr noundef %0, ptr noundef %1, i32 noundef %2) #0 {
  %4 = alloca ptr, align 8
  %5 = alloca ptr, align 8
  %6 = alloca i32, align 4
  %7 = alloca i32, align 4
  %8 = alloca i32, align 4
  %9 = alloca ptr, align 8
  %10 = alloca ptr, align 8
  store ptr %0, ptr %4, align 8, !tbaa !44
  store ptr %1, ptr %5, align 8, !tbaa !44
  store i32 %2, ptr %6, align 4, !tbaa !11
  call void @llvm.lifetime.start.p0(i64 4, ptr %7) #5
  call void @llvm.lifetime.start.p0(i64 4, ptr %8) #5
  %11 = load i32, ptr %6, align 4, !tbaa !11
  %12 = ashr i32 %11, 1
  store i32 %12, ptr %8, align 4, !tbaa !11
  call void @llvm.lifetime.start.p0(i64 8, ptr %9) #5
  %13 = load ptr, ptr %4, align 8, !tbaa !44
  store ptr %13, ptr %9, align 8, !tbaa !91
  call void @llvm.lifetime.start.p0(i64 8, ptr %10) #5
  %14 = load ptr, ptr %5, align 8, !tbaa !44
  store ptr %14, ptr %10, align 8, !tbaa !91
  %15 = load ptr, ptr %9, align 8, !tbaa !91
  %16 = getelementptr inbounds i32, ptr %15, i64 0
  %17 = load i32, ptr %16, align 4, !tbaa !11
  %18 = load ptr, ptr %9, align 8, !tbaa !91
  %19 = load i32, ptr %8, align 4, !tbaa !11
  %20 = sext i32 %19 to i64
  %21 = getelementptr inbounds i32, ptr %18, i64 %20
  %22 = load i32, ptr %21, align 4, !tbaa !11
  %23 = load ptr, ptr %9, align 8, !tbaa !91
  %24 = load i32, ptr %8, align 4, !tbaa !11
  %25 = sext i32 %24 to i64
  %26 = getelementptr inbounds i32, ptr %23, i64 %25
  %27 = load i32, ptr %26, align 4, !tbaa !11
  %28 = add i32 %22, %27
  %29 = add i32 %28, 2
  %30 = ashr i32 %29, 2
  %31 = sub i32 %17, %30
  %32 = load ptr, ptr %10, align 8, !tbaa !91
  %33 = getelementptr inbounds i32, ptr %32, i64 0
  store i32 %31, ptr %33, align 4, !tbaa !11
  store i32 1, ptr %7, align 4, !tbaa !11
  br label %34

34:                                               ; preds = %97, %3
  %35 = load i32, ptr %7, align 4, !tbaa !11
  %36 = load i32, ptr %8, align 4, !tbaa !11
  %37 = icmp slt i32 %35, %36
  br i1 %37, label %38, label %100

38:                                               ; preds = %34
  %39 = load ptr, ptr %9, align 8, !tbaa !91
  %40 = load i32, ptr %7, align 4, !tbaa !11
  %41 = sext i32 %40 to i64
  %42 = getelementptr inbounds i32, ptr %39, i64 %41
  %43 = load i32, ptr %42, align 4, !tbaa !11
  %44 = load ptr, ptr %9, align 8, !tbaa !91
  %45 = load i32, ptr %7, align 4, !tbaa !11
  %46 = load i32, ptr %8, align 4, !tbaa !11
  %47 = add nsw i32 %45, %46
  %48 = sub nsw i32 %47, 1
  %49 = sext i32 %48 to i64
  %50 = getelementptr inbounds i32, ptr %44, i64 %49
  %51 = load i32, ptr %50, align 4, !tbaa !11
  %52 = load ptr, ptr %9, align 8, !tbaa !91
  %53 = load i32, ptr %7, align 4, !tbaa !11
  %54 = load i32, ptr %8, align 4, !tbaa !11
  %55 = add nsw i32 %53, %54
  %56 = sext i32 %55 to i64
  %57 = getelementptr inbounds i32, ptr %52, i64 %56
  %58 = load i32, ptr %57, align 4, !tbaa !11
  %59 = add i32 %51, %58
  %60 = add i32 %59, 2
  %61 = ashr i32 %60, 2
  %62 = sub i32 %43, %61
  %63 = load ptr, ptr %10, align 8, !tbaa !91
  %64 = load i32, ptr %7, align 4, !tbaa !11
  %65 = sext i32 %64 to i64
  %66 = getelementptr inbounds i32, ptr %63, i64 %65
  store i32 %62, ptr %66, align 4, !tbaa !11
  %67 = load ptr, ptr %9, align 8, !tbaa !91
  %68 = load i32, ptr %7, align 4, !tbaa !11
  %69 = load i32, ptr %8, align 4, !tbaa !11
  %70 = add nsw i32 %68, %69
  %71 = sub nsw i32 %70, 1
  %72 = sext i32 %71 to i64
  %73 = getelementptr inbounds i32, ptr %67, i64 %72
  %74 = load i32, ptr %73, align 4, !tbaa !11
  %75 = load ptr, ptr %10, align 8, !tbaa !91
  %76 = load i32, ptr %7, align 4, !tbaa !11
  %77 = sub nsw i32 %76, 1
  %78 = sext i32 %77 to i64
  %79 = getelementptr inbounds i32, ptr %75, i64 %78
  %80 = load i32, ptr %79, align 4, !tbaa !11
  %81 = load ptr, ptr %10, align 8, !tbaa !91
  %82 = load i32, ptr %7, align 4, !tbaa !11
  %83 = sext i32 %82 to i64
  %84 = getelementptr inbounds i32, ptr %81, i64 %83
  %85 = load i32, ptr %84, align 4, !tbaa !11
  %86 = add i32 %80, %85
  %87 = add i32 %86, 1
  %88 = ashr i32 %87, 1
  %89 = add i32 %74, %88
  %90 = load ptr, ptr %10, align 8, !tbaa !91
  %91 = load i32, ptr %7, align 4, !tbaa !11
  %92 = load i32, ptr %8, align 4, !tbaa !11
  %93 = add nsw i32 %91, %92
  %94 = sub nsw i32 %93, 1
  %95 = sext i32 %94 to i64
  %96 = getelementptr inbounds i32, ptr %90, i64 %95
  store i32 %89, ptr %96, align 4, !tbaa !11
  br label %97

97:                                               ; preds = %38
  %98 = load i32, ptr %7, align 4, !tbaa !11
  %99 = add nsw i32 %98, 1
  store i32 %99, ptr %7, align 4, !tbaa !11
  br label %34, !llvm.loop !98

100:                                              ; preds = %34
  %101 = load ptr, ptr %9, align 8, !tbaa !91
  %102 = load i32, ptr %6, align 4, !tbaa !11
  %103 = sub nsw i32 %102, 1
  %104 = sext i32 %103 to i64
  %105 = getelementptr inbounds i32, ptr %101, i64 %104
  %106 = load i32, ptr %105, align 4, !tbaa !11
  %107 = load ptr, ptr %10, align 8, !tbaa !91
  %108 = load i32, ptr %8, align 4, !tbaa !11
  %109 = sub nsw i32 %108, 1
  %110 = sext i32 %109 to i64
  %111 = getelementptr inbounds i32, ptr %107, i64 %110
  %112 = load i32, ptr %111, align 4, !tbaa !11
  %113 = load ptr, ptr %10, align 8, !tbaa !91
  %114 = load i32, ptr %8, align 4, !tbaa !11
  %115 = sub nsw i32 %114, 1
  %116 = sext i32 %115 to i64
  %117 = getelementptr inbounds i32, ptr %113, i64 %116
  %118 = load i32, ptr %117, align 4, !tbaa !11
  %119 = add i32 %112, %118
  %120 = add i32 %119, 1
  %121 = ashr i32 %120, 1
  %122 = add i32 %106, %121
  %123 = load ptr, ptr %10, align 8, !tbaa !91
  %124 = load i32, ptr %6, align 4, !tbaa !11
  %125 = sub nsw i32 %124, 1
  %126 = sext i32 %125 to i64
  %127 = getelementptr inbounds i32, ptr %123, i64 %126
  store i32 %122, ptr %127, align 4, !tbaa !11
  %128 = load ptr, ptr %9, align 8, !tbaa !91
  %129 = load ptr, ptr %10, align 8, !tbaa !91
  %130 = load ptr, ptr %10, align 8, !tbaa !91
  %131 = load i32, ptr %8, align 4, !tbaa !11
  %132 = sext i32 %131 to i64
  %133 = getelementptr inbounds i32, ptr %130, i64 %132
  %134 = load i32, ptr %8, align 4, !tbaa !11
  call void @interleave_10bit(ptr noundef %128, ptr noundef %129, ptr noundef %133, i32 noundef %134, i32 noundef 1, i32 noundef 1)
  call void @llvm.lifetime.end.p0(i64 8, ptr %10) #5
  call void @llvm.lifetime.end.p0(i64 8, ptr %9) #5
  call void @llvm.lifetime.end.p0(i64 4, ptr %8) #5
  call void @llvm.lifetime.end.p0(i64 4, ptr %7) #5
  ret void
}